; Function Attrs: mustprogress uwtable
define dso_local noundef range(i32 -11, 1) i32 @hs_compile_ext_multi(ptr noundef %0, ptr noundef %1, ptr noundef %2, ptr noundef %3, i32 noundef %4, i32 noundef %5, ptr noundef %6, ptr noundef %7, ptr noundef %8) local_unnamed_addr #0 personality ptr @__gxx_personality_v0 {
  %10 = alloca %"struct.ue2::Grey", align 8
  call void @llvm.lifetime.start.p0(i64 296, ptr nonnull %10) #15
  call void @_ZN3ue24GreyC1Ev(ptr noundef nonnull align 8 dereferenceable(292) %10)
  %11 = invoke noundef i32 @_ZN3ue220hs_compile_multi_intEPKPKcPKjS5_PKPK11hs_expr_extjjPK16hs_platform_infoPP11hs_databasePP16hs_compile_errorRKNS_4GreyE(ptr noundef %0, ptr noundef %1, ptr noundef %2, ptr noundef %3, i32 noundef %4, i32 noundef %5, ptr noundef %6, ptr noundef %7, ptr noundef %8, ptr noundef nonnull align 8 dereferenceable(292) %10)
          to label %12 unwind label %20

12:                                               ; preds = %9
  %13 = getelementptr inbounds nuw i8, ptr %10, i64 192
  %14 = load ptr, ptr %13, align 8
  %15 = getelementptr inbounds nuw i8, ptr %10, i64 208
  %16 = icmp eq ptr %14, %15
  br i1 %16, label %_ZNKSt7__cxx1112basic_stringIcSt11char_traitsIcESaIcEE11_M_is_localEv.exit.thread.i.i.i, label %_ZNKSt7__cxx1112basic_stringIcSt11char_traitsIcESaIcEE11_M_is_localEv.exit.i.i.i

_ZNKSt7__cxx1112basic_stringIcSt11char_traitsIcESaIcEE11_M_is_localEv.exit.thread.i.i.i: ; preds = %12
  %17 = getelementptr inbounds nuw i8, ptr %10, i64 200
  %18 = load i64, ptr %17, align 8
  %19 = icmp ult i64 %18, 16
  call void @llvm.assume(i1 %19)
  br label %_ZN3ue24GreyD2Ev.exit

_ZNKSt7__cxx1112basic_stringIcSt11char_traitsIcESaIcEE11_M_is_localEv.exit.i.i.i: ; preds = %12
  call void @_ZdlPv(ptr noundef %14) #16
  br label %_ZN3ue24GreyD2Ev.exit

_ZN3ue24GreyD2Ev.exit:                            ; preds = %_ZNKSt7__cxx1112basic_stringIcSt11char_traitsIcESaIcEE11_M_is_localEv.exit.thread.i.i.i, %_ZNKSt7__cxx1112basic_stringIcSt11char_traitsIcESaIcEE11_M_is_localEv.exit.i.i.i
  call void @llvm.lifetime.end.p0(i64 296, ptr nonnull %10) #15
  ret i32 %11

20:                                               ; preds = %9
  %21 = landingpad { ptr, i32 }
          cleanup
  %22 = getelementptr inbounds nuw i8, ptr %10, i64 192
  %23 = load ptr, ptr %22, align 8
  %24 = getelementptr inbounds nuw i8, ptr %10, i64 208
  %25 = icmp eq ptr %23, %24
  br i1 %25, label %_ZNKSt7__cxx1112basic_stringIcSt11char_traitsIcESaIcEE11_M_is_localEv.exit.thread.i.i.i11, label %_ZNKSt7__cxx1112basic_stringIcSt11char_traitsIcESaIcEE11_M_is_localEv.exit.i.i.i10

_ZNKSt7__cxx1112basic_stringIcSt11char_traitsIcESaIcEE11_M_is_localEv.exit.thread.i.i.i11: ; preds = %20
  %26 = getelementptr inbounds nuw i8, ptr %10, i64 200
  %27 = load i64, ptr %26, align 8
  %28 = icmp ult i64 %27, 16
  call void @llvm.assume(i1 %28)
  br label %_ZN3ue24GreyD2Ev.exit12

_ZNKSt7__cxx1112basic_stringIcSt11char_traitsIcESaIcEE11_M_is_localEv.exit.i.i.i10: ; preds = %20
  call void @_ZdlPv(ptr noundef %23) #16
  br label %_ZN3ue24GreyD2Ev.exit12

_ZN3ue24GreyD2Ev.exit12:                          ; preds = %_ZNKSt7__cxx1112basic_stringIcSt11char_traitsIcESaIcEE11_M_is_localEv.exit.thread.i.i.i11, %_ZNKSt7__cxx1112basic_stringIcSt11char_traitsIcESaIcEE11_M_is_localEv.exit.i.i.i10
  call void @llvm.lifetime.end.p0(i64 296, ptr nonnull %10) #15
  resume { ptr, i32 } %21
}